; Function Attrs: mustprogress nofree nosync nounwind willreturn memory(argmem: read) uwtable
define dso_local noundef i32 @_ZNK2EA4StdC8DateTime12GetParameterENS0_9ParameterE(ptr noundef nonnull align 8 dereferenceable(12) %this, i32 noundef %parameter) local_unnamed_addr #7 align 2 {
entry:
  switch i32 %parameter, label %common.ret85 [
    i32 1, label %sw.bb
    i32 2, label %sw.bb15
    i32 5, label %sw.bb24
    i32 6, label %sw.bb48
    i32 7, label %sw.bb62
    i32 8, label %sw.bb68
    i32 9, label %sw.bb73
    i32 10, label %sw.bb78
    i32 11, label %sw.bb82
    i32 3, label %sw.bb83
    i32 4, label %sw.bb89
  ]

sw.bb:                                            ; preds = %entry
  %0 = load i64, ptr %this, align 8
  %div = sdiv i64 %0, 86400
  %div2 = sdiv i64 %0, 31536000
  %sub = add nsw i64 %div2, -1
  %div3.neg = sdiv i64 %sub, -4
  %div6.neg.neg = sdiv i64 %sub, 100
  %div10.neg = sdiv i64 %sub, -400
  %sub7.neg = add nsw i64 %div, -1
  %add.neg = add nsw i64 %sub7.neg, %div3.neg
  %sub11 = add nsw i64 %add.neg, %div6.neg.neg
  %sub12 = add nsw i64 %sub11, %div10.neg
  %div13 = sdiv i64 %sub12, 365
  %conv = trunc i64 %div13 to i32
  %add14 = add i32 %conv, 1
  br label %common.ret85

sw.bb15:                                          ; preds = %entry
  %1 = load i64, ptr %this, align 8
  %div.i = sdiv i64 %1, 86400
  %div2.i = sdiv i64 %1, 31536000
  %sub.i = add nsw i64 %div2.i, -1
  %div3.neg.i = sdiv i64 %sub.i, -4
  %div6.neg.neg.i = sdiv i64 %sub.i, 100
  %div10.neg.i = sdiv i64 %sub.i, -400
  %sub7.neg.i = add nsw i64 %div.i, -1
  %add.neg.i = add nsw i64 %sub7.neg.i, %div3.neg.i
  %sub11.i = add nsw i64 %add.neg.i, %div6.neg.neg.i
  %sub12.i = add nsw i64 %sub11.i, %div10.neg.i
  %div13.i = sdiv i64 %sub12.i, 365
  %conv.i = trunc i64 %div13.i to i32
  %add14.i = add i32 %conv.i, 1
  %call16 = tail call noundef i32 @_ZNK2EA4StdC8DateTime12GetParameterENS0_9ParameterE(ptr noundef nonnull align 8 dereferenceable(12) %this, i32 noundef 5)
  %and.i = and i32 %add14.i, 3
  %tobool.not.i = icmp ne i32 %and.i, 0
  %rem.i = urem i32 %add14.i, 100
  %tobool1.not.i = icmp eq i32 %rem.i, 0
  %or.cond.i = or i1 %tobool.not.i, %tobool1.not.i
  br i1 %or.cond.i, label %lor.rhs.i, label %_ZN2EA4StdC10IsLeapYearEj.exit

lor.rhs.i:                                        ; preds = %sw.bb15
  %rem2.i = urem i32 %add14.i, 400
  %tobool3.not.i = icmp eq i32 %rem2.i, 0
  %2 = select i1 %tobool3.not.i, i64 13, i64 0
  br label %_ZN2EA4StdC10IsLeapYearEj.exit

_ZN2EA4StdC10IsLeapYearEj.exit:                   ; preds = %sw.bb15, %lor.rhs.i
  %mul = phi i64 [ %2, %lor.rhs.i ], [ 13, %sw.bb15 ]
  br label %for.body

for.body:                                         ; preds = %_ZN2EA4StdC10IsLeapYearEj.exit, %for.inc
  %indvars.iv = phi i64 [ 1, %_ZN2EA4StdC10IsLeapYearEj.exit ], [ %indvars.iv.next, %for.inc ]
  %3 = add nuw nsw i64 %indvars.iv, %mul
  %arrayidx = getelementptr inbounds nuw [26 x i32], ptr @_ZN2EA4StdCL11kDaysInYearE, i64 0, i64 %3
  %4 = load i32, ptr %arrayidx, align 4
  %cmp20.not = icmp ugt i32 %call16, %4
  br i1 %cmp20.not, label %for.inc, label %for.end.split.loop.exit

for.inc:                                          ; preds = %for.body
  %indvars.iv.next = add nuw nsw i64 %indvars.iv, 1
  %exitcond.not = icmp eq i64 %indvars.iv.next, 13
  br i1 %exitcond.not, label %for.end, label %for.body, !llvm.loop !6

for.end.split.loop.exit:                          ; preds = %for.body
  %5 = trunc nuw nsw i64 %indvars.iv to i32
  br label %for.end

for.end:                                          ; preds = %for.inc, %for.end.split.loop.exit
  %result.1 = phi i32 [ %5, %for.end.split.loop.exit ], [ 0, %for.inc ]
  %spec.store.select = tail call i32 @llvm.umax.i32(i32 %result.1, i32 1)
  br label %common.ret85

sw.bb24:                                          ; preds = %entry
  %6 = load i64, ptr %this, align 8
  %div.i14 = sdiv i64 %6, 86400
  %div2.i15 = sdiv i64 %6, 31536000
  %sub.i16 = add nsw i64 %div2.i15, -1
  %div3.neg.i17 = sdiv i64 %sub.i16, -4
  %div6.neg.neg.i18 = sdiv i64 %sub.i16, 100
  %div10.neg.i20 = sdiv i64 %sub.i16, -400
  %sub7.neg.i19 = add nsw i64 %div.i14, -1
  %add.neg.i21 = add nsw i64 %sub7.neg.i19, %div3.neg.i17
  %sub11.i22 = add nsw i64 %add.neg.i21, %div6.neg.neg.i18
  %sub12.i23 = add nsw i64 %sub11.i22, %div10.neg.i20
  %div13.i24 = sdiv i64 %sub12.i23, 365
  %conv.i25 = trunc i64 %div13.i24 to i32
  %div3213 = lshr i32 %conv.i25, 2
  %div34 = udiv i32 %conv.i25, 100
  %sub35 = sub nsw i32 %div3213, %div34
  %div37 = udiv i32 %conv.i25, 400
  %add38 = add nsw i32 %sub35, %div37
  %mul40 = mul i32 %conv.i25, 365
  %add41 = add i32 %add38, %mul40
  %7 = trunc i64 %div.i14 to i32
  %conv44 = sub i32 %7, %add41
  %cmp45 = icmp eq i32 %add41, %7
  %spec.store.select1 = select i1 %cmp45, i32 1, i32 %conv44
  br label %common.ret85

sw.bb48:                                          ; preds = %entry
  %8 = load i64, ptr %this, align 8
  %div.i27 = sdiv i64 %8, 86400
  %div2.i28 = sdiv i64 %8, 31536000
  %sub.i29 = add nsw i64 %div2.i28, -1
  %div3.neg.i30 = sdiv i64 %sub.i29, -4
  %div6.neg.neg.i31 = sdiv i64 %sub.i29, 100
  %div10.neg.i33 = sdiv i64 %sub.i29, -400
  %sub7.neg.i32 = add nsw i64 %div.i27, -1
  %add.neg.i34 = add nsw i64 %sub7.neg.i32, %div3.neg.i30
  %sub11.i35 = add nsw i64 %add.neg.i34, %div6.neg.neg.i31
  %sub12.i36 = add nsw i64 %sub11.i35, %div10.neg.i33
  %sub12.i36.fr = freeze i64 %sub12.i36
  %div13.i37 = sdiv i64 %sub12.i36.fr, 365
  %conv.i38 = trunc i64 %div13.i37 to i32
  %add14.i39 = add i32 %conv.i38, 1
  %call52 = tail call noundef i32 @_ZNK2EA4StdC8DateTime12GetParameterENS0_9ParameterE(ptr noundef nonnull align 8 dereferenceable(12) %this, i32 noundef 2)
  %div3213.i = lshr i32 %conv.i38, 2
  %div34.i = udiv i32 %conv.i38, 100
  %sub35.i = sub nsw i32 %div3213.i, %div34.i
  %div37.i = udiv i32 %conv.i38, 400
  %add38.i = add nsw i32 %sub35.i, %div37.i
  %mul40.i = mul i32 %conv.i38, 365
  %add41.i = add i32 %add38.i, %mul40.i
  %9 = trunc i64 %div.i27 to i32
  %conv44.i = sub i32 %9, %add41.i
  %cmp45.i = icmp eq i32 %add41.i, %9
  %spec.store.select1.i = select i1 %cmp45.i, i32 1, i32 %conv44.i
  %and.i40 = and i32 %add14.i39, 3
  %tobool.not.i41 = icmp ne i32 %and.i40, 0
  %rem.i42 = urem i32 %add14.i39, 100
  %tobool1.not.i43 = icmp eq i32 %rem.i42, 0
  %or.cond.i44 = or i1 %tobool.not.i41, %tobool1.not.i43
  br i1 %or.cond.i44, label %_ZN2EA4StdC10IsLeapYearEj.exit48, label %_ZN2EA4StdC10IsLeapYearEj.exit48.thread

_ZN2EA4StdC10IsLeapYearEj.exit48:                 ; preds = %sw.bb48
  %rem2.i46 = urem i32 %add14.i39, 400
  %tobool3.not.i47 = icmp eq i32 %rem2.i46, 0
  %spec.select = select i1 %tobool3.not.i47, i32 13, i32 0
  br label %_ZN2EA4StdC10IsLeapYearEj.exit48.thread

_ZN2EA4StdC10IsLeapYearEj.exit48.thread:          ; preds = %sw.bb48, %_ZN2EA4StdC10IsLeapYearEj.exit48
  %10 = phi i32 [ %spec.select, %_ZN2EA4StdC10IsLeapYearEj.exit48 ], [ 13, %sw.bb48 ]
  %sub5675 = add i32 %call52, -1
  %add58 = add i32 %sub5675, %10
  %idxprom59 = zext i32 %add58 to i64
  %arrayidx60 = getelementptr inbounds nuw [26 x i32], ptr @_ZN2EA4StdCL11kDaysInYearE, i64 0, i64 %idxprom59
  %11 = load i32, ptr %arrayidx60, align 4
  %sub61 = sub i32 %spec.store.select1.i, %11
  br label %common.ret85

sw.bb62:                                          ; preds = %entry
  %12 = load i64, ptr %this, align 8
  %div65 = sdiv i64 %12, 86400
  %rem = srem i64 %div65, 7
  %conv66 = trunc nsw i64 %rem to i32
  %add67 = add nsw i32 %conv66, 1
  br label %common.ret85

sw.bb68:                                          ; preds = %entry
  %13 = load i64, ptr %this, align 8
  %div70 = sdiv i64 %13, 3600
  %rem71 = srem i64 %div70, 24
  %conv72 = trunc nsw i64 %rem71 to i32
  br label %common.ret85

sw.bb73:                                          ; preds = %entry
  %14 = load i64, ptr %this, align 8
  %div75 = sdiv i64 %14, 60
  %rem76 = srem i64 %div75, 60
  %conv77 = trunc nsw i64 %rem76 to i32
  br label %common.ret85

sw.bb78:                                          ; preds = %entry
  %15 = load i64, ptr %this, align 8
  %rem80 = srem i64 %15, 60
  %conv81 = trunc nsw i64 %rem80 to i32
  br label %common.ret85

sw.bb82:                                          ; preds = %entry
  %mnNanosecond = getelementptr inbounds nuw i8, ptr %this, i64 8
  %16 = load i32, ptr %mnNanosecond, align 8
  br label %common.ret85

sw.bb83:                                          ; preds = %entry
  %17 = load i64, ptr %this, align 8
  %div.i14.i49 = sdiv i64 %17, 86400
  %div2.i15.i50 = sdiv i64 %17, 31536000
  %sub.i16.i51 = add nsw i64 %div2.i15.i50, -1
  %div3.neg.i17.i52 = sdiv i64 %sub.i16.i51, -4
  %div6.neg.neg.i18.i53 = sdiv i64 %sub.i16.i51, 100
  %div10.neg.i20.i55 = sdiv i64 %sub.i16.i51, -400
  %sub7.neg.i19.i54 = add nsw i64 %div.i14.i49, -1
  %add.neg.i21.i56 = add nsw i64 %sub7.neg.i19.i54, %div3.neg.i17.i52
  %sub11.i22.i57 = add nsw i64 %add.neg.i21.i56, %div6.neg.neg.i18.i53
  %sub12.i23.i58 = add nsw i64 %sub11.i22.i57, %div10.neg.i20.i55
  %div13.i24.i59 = sdiv i64 %sub12.i23.i58, 365
  %conv.i25.i60 = trunc i64 %div13.i24.i59 to i32
  %div3213.i63 = lshr i32 %conv.i25.i60, 2
  %div34.i64 = udiv i32 %conv.i25.i60, 100
  %sub35.i65 = sub nsw i32 %div3213.i63, %div34.i64
  %div37.i66 = udiv i32 %conv.i25.i60, 400
  %add38.i67 = add nsw i32 %sub35.i65, %div37.i66
  %mul40.i68 = mul i32 %conv.i25.i60, 365
  %add41.i69 = add i32 %add38.i67, %mul40.i68
  %18 = trunc i64 %div.i14.i49 to i32
  %cmp45.i71 = icmp eq i32 %add41.i69, %18
  %19 = xor i32 %add41.i69, -1
  %20 = add i32 %19, %18
  %21 = udiv i32 %20, 7
  %22 = add nuw nsw i32 %21, 1
  %add88 = select i1 %cmp45.i71, i32 1, i32 %22
  br label %common.ret85

common.ret85:                                     ; preds = %entry, %sw.bb83, %sw.bb82, %sw.bb78, %sw.bb73, %sw.bb68, %sw.bb62, %_ZN2EA4StdC10IsLeapYearEj.exit48.thread, %sw.bb24, %for.end, %sw.bb, %sw.bb89
  %common.ret85.op = phi i32 [ %add93, %sw.bb89 ], [ 0, %entry ], [ %add88, %sw.bb83 ], [ %16, %sw.bb82 ], [ %conv81, %sw.bb78 ], [ %conv77, %sw.bb73 ], [ %conv72, %sw.bb68 ], [ %add67, %sw.bb62 ], [ %sub61, %_ZN2EA4StdC10IsLeapYearEj.exit48.thread ], [ %spec.store.select1, %sw.bb24 ], [ %spec.store.select, %for.end ], [ %add14, %sw.bb ]
  ret i32 %common.ret85.op

sw.bb89:                                          ; preds = %entry
  %call90 = tail call noundef i32 @_ZNK2EA4StdC8DateTime12GetParameterENS0_9ParameterE(ptr noundef nonnull align 8 dereferenceable(12) %this, i32 noundef 6)
  %sub91 = add i32 %call90, -1
  %div92 = udiv i32 %sub91, 7
  %add93 = add nuw nsw i32 %div92, 1
  br label %common.ret85
}